Certificate:
    Data:
        Version: 3 (0x2)
        Serial Number: 4 (0x4)
    Signature Algorithm: sha256WithRSAEncryption
        Issuer: C=PT, ST=Coimbra, L=Coimbra, O=UC, OU=DEI, CN=CA
        Validity
            Not Before: Feb 28 16:58:04 2023 GMT
            Not After : Feb 28 16:58:04 2024 GMT
        Subject: C=PT, ST=Coimbra, O=UC, OU=DEI, CN=david
        Subject Public Key Info:
            Public Key Algorithm: rsaEncryption
                Public-Key: (1024 bit)
                Modulus:
                    00:cd:28:c8:8c:81:fa:db:9e:e3:98:64:53:6f:42:
                    f1:1b:27:30:cf:53:9d:85:4b:ed:b2:69:a2:32:44:
                    57:f7:01:37:9d:1c:fb:02:f0:18:21:3a:2e:fa:9e:
                    b5:a7:f7:82:84:f3:bd:c9:77:65:2d:66:d0:8d:c7:
                    59:a7:cd:30:65:10:17:52:4e:52:bb:37:21:77:f6:
                    9b:42:db:b8:72:4d:1d:b5:a7:b0:34:46:6b:de:83:
                    5e:9d:45:49:23:ae:bd:9e:2f:b9:47:5d:81:72:13:
                    4d:98:43:df:c6:9f:07:b7:56:74:8f:55:ab:ea:73:
                    e0:3d:6d:be:96:bd:31:b2:a5
                Exponent: 65537 (0x10001)
        X509v3 extensions:
            X509v3 Basic Constraints: 
                CA:FALSE
            Netscape Comment: 
                OpenSSL Generated Certificate
            X509v3 Subject Key Identifier: 
                2D:FD:37:F4:4A:5C:32:B3:87:C5:9E:7E:9A:1B:60:09:75:E5:77:71
            X509v3 Authority Key Identifier: 
                DirName:/C=PT/ST=Coimbra/L=Coimbra/O=UC/OU=DEI/CN=CA
                serial:D8:3E:5A:BB:F9:0E:12:A2

    Signature Algorithm: sha256WithRSAEncryption
         70:64:b8:50:26:9f:3c:1d:17:7a:ed:b5:00:63:4d:90:c2:a7:
         3d:61:1d:a1:f9:20:6d:09:47:21:8f:6f:43:d0:b8:d9:75:13:
         d2:e5:dc:03:d7:21:13:81:5a:94:43:8d:90:83:73:d6:ba:6b:
         82:cd:12:e7:46:ee:89:51:8f:15:43:e5:a9:e2:ab:aa:ed:7b:
         3a:d7:33:79:98:13:ab:21:ce:a9:ea:86:32:7d:cf:f9:29:2a:
         a6:4b:b9:c2:61:8e:79:37:34:bb:18:28:68:5d:d8:c7:1d:4c:
         64:f2:d6:fe:42:95:a4:a1:03:d7:0b:6f:48:97:d3:19:e5:e4:
         79:33
-----BEGIN CERTIFICATE-----
MIIC6jCCAlOgAwIBAgIBBDANBgkqhkiG9w0BAQsFADBZMQswCQYDVQQGEwJQVDEQ
MA4GA1UECAwHQ29pbWJyYTEQMA4GA1UEBwwHQ29pbWJyYTELMAkGA1UECgwCVUMx
DDAKBgNVBAsMA0RFSTELMAkGA1UEAwwCQ0EwHhcNMjMwMjI4MTY1ODA0WhcNMjQw
MjI4MTY1ODA0WjBKMQswCQYDVQQGEwJQVDEQMA4GA1UECAwHQ29pbWJyYTELMAkG
A1UECgwCVUMxDDAKBgNVBAsMA0RFSTEOMAwGA1UEAwwFZGF2aWQwgZ8wDQYJKoZI
hvcNAQEBBQADgY0AMIGJAoGBAM0oyIyB+tue45hkU29C8RsnMM9TnYVL7bJpojJE
V/cBN50c+wLwGCE6Lvqetaf3goTzvcl3ZS1m0I3HWafNMGUQF1JOUrs3IXf2m0Lb
uHJNHbWnsDRGa96DXp1FSSOuvZ4vuUddgXITTZhD38afB7dWdI9Vq+pz4D1tvpa9
MbKlAgMBAAGjgdAwgc0wCQYDVR0TBAIwADAsBglghkgBhvhCAQ0EHxYdT3BlblNT
TCBHZW5lcmF0ZWQgQ2VydGlmaWNhdGUwHQYDVR0OBBYEFC39N/RKXDKzh8Wefpob
YAl15XdxMHMGA1UdIwRsMGqhXaRbMFkxCzAJBgNVBAYTAlBUMRAwDgYDVQQIDAdD
b2ltYnJhMRAwDgYDVQQHDAdDb2ltYnJhMQswCQYDVQQKDAJVQzEMMAoGA1UECwwD
REVJMQswCQYDVQQDDAJDQYIJANg+Wrv5DhKiMA0GCSqGSIb3DQEBCwUAA4GBAHBk
uFAmnzwdF3rttQBjTZDCpz1hHaH5IG0JRyGPb0PQuNl1E9Ll3APXIROBWpRDjZCD
c9a6a4LNEudG7olRjxVD5aniq6rtezrXM3mYE6shzqnqhjJ9z/kpKqZLucJhjnk3
NLsYKGhd2McdTGTy1v5ClaShA9cLb0iX0xnl5Hkz
-----END CERTIFICATE-----
